target datalayout = "e-m:e-p270:32:32-p271:32:32-p272:64:64-i64:64-i128:128-f80:128-n8:16:32:64-S128"
target triple = "x86_64-pc-linux-gnu"

%union.EX_STYPE = type { ptr }
%struct.Agobj_s = type { %struct.Agtag_s, ptr }
%struct.Agtag_s = type { i32, i64 }

; Function Attrs: nounwind uwtable
define internal ptr @int2ptr(i64 noundef %0) #0 {
  %2 = alloca i64, align 8
  store i64 %0, ptr %2, align 8, !tbaa !99
  %3 = load i64, ptr %2, align 8, !tbaa !99
  %4 = inttoptr i64 %3 to ptr
  ret ptr %4
}

; Function Attrs: nounwind uwtable
define internal ptr @keyval(ptr %0, i64 noundef %1) #0 {
  %3 = alloca %union.EX_STYPE, align 8
  %4 = alloca %union.EX_STYPE, align 8
  %5 = alloca i64, align 8
  %6 = getelementptr inbounds nuw %union.EX_STYPE, ptr %4, i32 0, i32 0
  store ptr %0, ptr %6, align 8
  store i64 %1, ptr %5, align 8, !tbaa !34
  %7 = load i64, ptr %5, align 8, !tbaa !34
  %8 = icmp sle i64 %7, 30
  br i1 %8, label %9, label %15

9:                                                ; preds = %2
  %10 = load i64, ptr %4, align 8, !tbaa !97
  %11 = call ptr @int2ptr(i64 noundef %10)
  %12 = getelementptr inbounds nuw %struct.Agobj_s, ptr %11, i32 0, i32 0
  %13 = getelementptr inbounds nuw %struct.Agtag_s, ptr %12, i32 0, i32 1
  %14 = load i64, ptr %13, align 8, !tbaa !102
  store i64 %14, ptr %4, align 8, !tbaa !97
  br label %15

15:                                               ; preds = %9, %2
  call void @llvm.memcpy.p0.p0.i64(ptr align 8 %3, ptr align 8 %4, i64 8, i1 false), !tbaa.struct !106
  %16 = getelementptr inbounds nuw %union.EX_STYPE, ptr %3, i32 0, i32 0
  %17 = load ptr, ptr %16, align 8
  ret ptr %17
}