; Function Attrs: mustprogress nofree norecurse nosync nounwind willreturn memory(argmem: read) uwtable
define internal ptr @keyval(ptr readonly captures(ret: address, provenance) %0, i64 noundef %1) #6 {
  %3 = icmp slt i64 %1, 31
  br i1 %3, label %4, label %8

4:                                                ; preds = %2
  %5 = getelementptr inbounds nuw i8, ptr %0, i64 8
  %6 = load i64, ptr %5, align 8, !tbaa !90
  %7 = inttoptr i64 %6 to ptr
  br label %8

8:                                                ; preds = %4, %2
  %.sroa.0.0 = phi ptr [ %7, %4 ], [ %0, %2 ]
  ret ptr %.sroa.0.0
}